; Function Attrs: mustprogress nounwind uwtable
define dso_local noundef zeroext i1 @_ZNK5clang6driver9ToolChain16isCrossCompilingEv(ptr nocapture noundef nonnull readonly align 8 dereferenceable(2168) %0) unnamed_addr #0 align 2 {
  %2 = alloca %"class.llvm::Triple", align 8
  %3 = alloca %"class.llvm::Twine", align 8
  %4 = getelementptr inbounds nuw i8, ptr %3, i64 32
  %5 = getelementptr inbounds nuw i8, ptr %3, i64 33
  store i8 1, ptr %5, align 1
  store ptr @.str.45, ptr %3, align 8
  store i8 3, ptr %4, align 8
  call void @_ZN4llvm6TripleC1ERKNS_5TwineE(ptr noundef nonnull align 8 dereferenceable(56) %2, ptr noundef nonnull align 8 dereferenceable(34) %3) #25
  %6 = getelementptr inbounds nuw i8, ptr %2, i64 32
  %7 = load i32, ptr %6, align 8
  switch i32 %7, label %12 [
    i32 1, label %8
    i32 2, label %8
    i32 35, label %8
    i32 36, label %8
  ]

8:                                                ; preds = %1, %1, %1, %1
  %9 = getelementptr inbounds i8, ptr %0, i64 48
  %10 = load i32, ptr %9, align 8
  %11 = icmp ult i32 %10, 37
  br i1 %11, label %switch.lookup, label %switch.edge

12:                                               ; preds = %1
  %13 = getelementptr inbounds i8, ptr %0, i64 48
  %14 = load i32, ptr %13, align 8
  %15 = icmp ne i32 %7, %14
  br label %switch.edge

switch.lookup:                                    ; preds = %8
  %switch.cast = zext nneg i32 %10 to i37
  %switch.downshift = lshr i37 34359738361, %switch.cast
  %switch.masked = trunc i37 %switch.downshift to i1
  br label %switch.edge

switch.edge:                                      ; preds = %8, %switch.lookup, %12
  %.0 = phi i1 [ %15, %12 ], [ %switch.masked, %switch.lookup ], [ true, %8 ]
  call void @_ZNSt7__cxx1112basic_stringIcSt11char_traitsIcESaIcEED1Ev(ptr noundef nonnull align 8 dereferenceable(32) %2) #25
  ret i1 %.0
}